target datalayout = "e-m:e-p270:32:32-p271:32:32-p272:64:64-i64:64-i128:128-f80:128-n8:16:32:64-S128"
target triple = "x86_64-unknown-linux-gnu"

%"class.llvh::itanium_demangle::Node" = type <{ ptr, i8, i8, i8, i8, [4 x i8] }>
%"struct.llvh::ItaniumPartialDemangler" = type { ptr, ptr }

; Function Attrs: mustprogress nounwind uwtable
define linkonce_odr hidden noundef zeroext i8 @_ZNK4llvh16itanium_demangle4Node7getKindEv(ptr noundef nonnull align 8 dereferenceable(12) %this) #0 comdat align 2 {
entry:
  %this.addr = alloca ptr, align 8
  store ptr %this, ptr %this.addr, align 8
  %this1 = load ptr, ptr %this.addr, align 8
  %K = getelementptr inbounds %"class.llvh::itanium_demangle::Node", ptr %this1, i32 0, i32 1
  %0 = load i8, ptr %K, align 8
  ret i8 %0
}

; Function Attrs: mustprogress nounwind uwtable
define hidden noundef zeroext i1 @_ZNK4llvh23ItaniumPartialDemangler13isSpecialNameEv(ptr noundef nonnull align 8 dereferenceable(16) %this) #0 align 2 {
entry:
  %this.addr = alloca ptr, align 8
  %K = alloca i8, align 1
  store ptr %this, ptr %this.addr, align 8
  %this1 = load ptr, ptr %this.addr, align 8
  %RootNode = getelementptr inbounds %"struct.llvh::ItaniumPartialDemangler", ptr %this1, i32 0, i32 0
  %0 = load ptr, ptr %RootNode, align 8
  %call = call noundef zeroext i8 @_ZNK4llvh16itanium_demangle4Node7getKindEv(ptr noundef nonnull align 8 dereferenceable(12) %0)
  store i8 %call, ptr %K, align 1
  %1 = load i8, ptr %K, align 1
  %conv = zext i8 %1 to i32
  %cmp = icmp eq i32 %conv, 20
  br i1 %cmp, label %lor.end, label %lor.rhs

lor.rhs:                                          ; preds = %entry
  %2 = load i8, ptr %K, align 1
  %conv2 = zext i8 %2 to i32
  %cmp3 = icmp eq i32 %conv2, 21
  br label %lor.end

lor.end:                                          ; preds = %lor.rhs, %entry
  %3 = phi i1 [ true, %entry ], [ %cmp3, %lor.rhs ]
  ret i1 %3
}

; Function Attrs: mustprogress nounwind uwtable
define hidden noundef zeroext i1 @_ZNK4llvh23ItaniumPartialDemangler10isFunctionEv(ptr noundef nonnull align 8 dereferenceable(16) %this) #0 align 2 {
entry:
  %this.addr = alloca ptr, align 8
  store ptr %this, ptr %this.addr, align 8
  %this1 = load ptr, ptr %this.addr, align 8
  %RootNode = getelementptr inbounds %"struct.llvh::ItaniumPartialDemangler", ptr %this1, i32 0, i32 0
  %0 = load ptr, ptr %RootNode, align 8
  %call = call noundef zeroext i8 @_ZNK4llvh16itanium_demangle4Node7getKindEv(ptr noundef nonnull align 8 dereferenceable(12) %0)
  %conv = zext i8 %call to i32
  %cmp = icmp eq i32 %conv, 18
  ret i1 %cmp
}

; Function Attrs: mustprogress nounwind uwtable
define hidden noundef zeroext i1 @_ZNK4llvh23ItaniumPartialDemangler6isDataEv(ptr noundef nonnull align 8 dereferenceable(16) %this) #0 align 2 {
entry:
  %this.addr = alloca ptr, align 8
  store ptr %this, ptr %this.addr, align 8
  %this1 = load ptr, ptr %this.addr, align 8
  %call = call noundef zeroext i1 @_ZNK4llvh23ItaniumPartialDemangler10isFunctionEv(ptr noundef nonnull align 8 dereferenceable(16) %this1)
  br i1 %call, label %land.end, label %land.rhs

land.rhs:                                         ; preds = %entry
  %call2 = call noundef zeroext i1 @_ZNK4llvh23ItaniumPartialDemangler13isSpecialNameEv(ptr noundef nonnull align 8 dereferenceable(16) %this1)
  %lnot = xor i1 %call2, true
  br label %land.end

land.end:                                         ; preds = %land.rhs, %entry
  %0 = phi i1 [ false, %entry ], [ %lnot, %land.rhs ]
  ret i1 %0
}