; Function Attrs: mustprogress nofree norecurse nosync nounwind willreturn memory(read, inaccessiblemem: none) uwtable
define hidden noundef zeroext i1 @_ZNK4llvh23ItaniumPartialDemangler6isDataEv(ptr nocapture noundef nonnull readonly align 8 dereferenceable(16) %this) local_unnamed_addr #0 align 2 {
entry:
  %0 = load ptr, ptr %this, align 8
  %K.i.i = getelementptr inbounds i8, ptr %0, i64 8
  %1 = load i8, ptr %K.i.i, align 8
  %cmp.i = icmp ne i8 %1, 18
  %2 = and i8 %1, -2
  %3 = icmp ne i8 %2, 20
  %4 = and i1 %cmp.i, %3
  ret i1 %4
}